target datalayout = "e-m:e-p270:32:32-p271:32:32-p272:64:64-i64:64-i128:128-f80:128-n8:16:32:64-S128"
target triple = "x86_64-pc-linux-gnu"

; Function Attrs: nounwind uwtable
define void @rgb32to24(ptr noundef %0, ptr noundef %1, i32 noundef %2) #0 {
  %4 = alloca ptr, align 8
  %5 = alloca ptr, align 8
  %6 = alloca i32, align 4
  %7 = alloca i32, align 4
  %8 = alloca i32, align 4
  store ptr %0, ptr %4, align 8, !tbaa !4
  store ptr %1, ptr %5, align 8, !tbaa !4
  store i32 %2, ptr %6, align 4, !tbaa !9
  call void @llvm.lifetime.start.p0(i64 4, ptr %7) #5
  call void @llvm.lifetime.start.p0(i64 4, ptr %8) #5
  %9 = load i32, ptr %6, align 4, !tbaa !9
  %10 = ashr i32 %9, 2
  store i32 %10, ptr %8, align 4, !tbaa !9
  store i32 0, ptr %7, align 4, !tbaa !9
  br label %11

11:                                               ; preds = %55, %3
  %12 = load i32, ptr %7, align 4, !tbaa !9
  %13 = load i32, ptr %8, align 4, !tbaa !9
  %14 = icmp slt i32 %12, %13
  br i1 %14, label %15, label %58

15:                                               ; preds = %11
  %16 = load ptr, ptr %4, align 8, !tbaa !4
  %17 = load i32, ptr %7, align 4, !tbaa !9
  %18 = mul nsw i32 4, %17
  %19 = add nsw i32 %18, 2
  %20 = sext i32 %19 to i64
  %21 = getelementptr inbounds i8, ptr %16, i64 %20
  %22 = load i8, ptr %21, align 1, !tbaa !13
  %23 = load ptr, ptr %5, align 8, !tbaa !4
  %24 = load i32, ptr %7, align 4, !tbaa !9
  %25 = mul nsw i32 3, %24
  %26 = add nsw i32 %25, 0
  %27 = sext i32 %26 to i64
  %28 = getelementptr inbounds i8, ptr %23, i64 %27
  store i8 %22, ptr %28, align 1, !tbaa !13
  %29 = load ptr, ptr %4, align 8, !tbaa !4
  %30 = load i32, ptr %7, align 4, !tbaa !9
  %31 = mul nsw i32 4, %30
  %32 = add nsw i32 %31, 1
  %33 = sext i32 %32 to i64
  %34 = getelementptr inbounds i8, ptr %29, i64 %33
  %35 = load i8, ptr %34, align 1, !tbaa !13
  %36 = load ptr, ptr %5, align 8, !tbaa !4
  %37 = load i32, ptr %7, align 4, !tbaa !9
  %38 = mul nsw i32 3, %37
  %39 = add nsw i32 %38, 1
  %40 = sext i32 %39 to i64
  %41 = getelementptr inbounds i8, ptr %36, i64 %40
  store i8 %35, ptr %41, align 1, !tbaa !13
  %42 = load ptr, ptr %4, align 8, !tbaa !4
  %43 = load i32, ptr %7, align 4, !tbaa !9
  %44 = mul nsw i32 4, %43
  %45 = add nsw i32 %44, 0
  %46 = sext i32 %45 to i64
  %47 = getelementptr inbounds i8, ptr %42, i64 %46
  %48 = load i8, ptr %47, align 1, !tbaa !13
  %49 = load ptr, ptr %5, align 8, !tbaa !4
  %50 = load i32, ptr %7, align 4, !tbaa !9
  %51 = mul nsw i32 3, %50
  %52 = add nsw i32 %51, 2
  %53 = sext i32 %52 to i64
  %54 = getelementptr inbounds i8, ptr %49, i64 %53
  store i8 %48, ptr %54, align 1, !tbaa !13
  br label %55

55:                                               ; preds = %15
  %56 = load i32, ptr %7, align 4, !tbaa !9
  %57 = add nsw i32 %56, 1
  store i32 %57, ptr %7, align 4, !tbaa !9
  br label %11, !llvm.loop !18

58:                                               ; preds = %11
  call void @llvm.lifetime.end.p0(i64 4, ptr %8) #5
  call void @llvm.lifetime.end.p0(i64 4, ptr %7) #5
  ret void
}