; Function Attrs: nofree norecurse nosync nounwind memory(argmem: readwrite) uwtable
define void @rgb32to24(ptr noundef readonly captures(none) %0, ptr noundef writeonly captures(none) %1, i32 noundef %2) local_unnamed_addr #0 {
  %4 = ashr i32 %2, 2
  %5 = icmp sgt i32 %4, 0
  br i1 %5, label %.lr.ph.preheader, label %._crit_edge

.lr.ph.preheader:                                 ; preds = %3
  %wide.trip.count = zext nneg i32 %4 to i64
  br label %.lr.ph

.lr.ph:                                           ; preds = %.lr.ph.preheader, %.lr.ph
  %indvars.iv = phi i64 [ 0, %.lr.ph.preheader ], [ %indvars.iv.next, %.lr.ph ]
  %6 = shl nsw i64 %indvars.iv, 2
  %7 = getelementptr inbounds nuw i8, ptr %0, i64 %6
  %8 = getelementptr inbounds nuw i8, ptr %7, i64 2
  %9 = load i8, ptr %8, align 1, !tbaa !8
  %10 = mul nuw nsw i64 %indvars.iv, 3
  %11 = getelementptr inbounds nuw i8, ptr %1, i64 %10
  store i8 %9, ptr %11, align 1, !tbaa !8
  %12 = getelementptr inbounds nuw i8, ptr %7, i64 1
  %13 = load i8, ptr %12, align 1, !tbaa !8
  %14 = getelementptr inbounds nuw i8, ptr %11, i64 1
  store i8 %13, ptr %14, align 1, !tbaa !8
  %15 = load i8, ptr %7, align 1, !tbaa !8
  %16 = getelementptr inbounds nuw i8, ptr %11, i64 2
  store i8 %15, ptr %16, align 1, !tbaa !8
  %indvars.iv.next = add nuw nsw i64 %indvars.iv, 1
  %exitcond.not = icmp eq i64 %indvars.iv.next, %wide.trip.count
  br i1 %exitcond.not, label %._crit_edge, label %.lr.ph, !llvm.loop !14

._crit_edge:                                      ; preds = %.lr.ph, %3
  ret void
}